; Function Attrs: nounwind uwtable
define dso_local i64 @heap_copy_tuple_as_datum(ptr noundef readonly captures(none) %0, ptr noundef %1) local_unnamed_addr #0 {
  %3 = getelementptr i8, ptr %0, i64 16
  %.val = load ptr, ptr %3, align 8
  %4 = getelementptr i8, ptr %.val, i64 20
  %.val.val = load i16, ptr %4, align 4
  %5 = and i16 %.val.val, 4
  %.not = icmp eq i16 %5, 0
  %6 = load i32, ptr %0, align 8
  br i1 %.not, label %9, label %7

7:                                                ; preds = %2
  %8 = tail call i64 @toast_flatten_tuple_to_datum(ptr noundef nonnull %.val, i32 noundef %6, ptr noundef %1) #12
  br label %24

9:                                                ; preds = %2
  %10 = zext i32 %6 to i64
  %11 = tail call ptr @palloc(i64 noundef %10) #12
  %12 = load ptr, ptr %3, align 8
  %13 = load i32, ptr %0, align 8
  %14 = zext i32 %13 to i64
  tail call void @llvm.memcpy.p0.p0.i64(ptr align 4 %11, ptr align 4 %12, i64 %14, i1 false)
  %15 = load i32, ptr %0, align 8
  %16 = shl i32 %15, 2
  store i32 %16, ptr %11, align 4
  %17 = getelementptr inbounds nuw i8, ptr %1, i64 4
  %18 = load i32, ptr %17, align 4
  %19 = getelementptr inbounds nuw i8, ptr %11, i64 8
  store i32 %18, ptr %19, align 4
  %20 = getelementptr inbounds nuw i8, ptr %1, i64 8
  %21 = load i32, ptr %20, align 8
  %22 = getelementptr inbounds nuw i8, ptr %11, i64 4
  store i32 %21, ptr %22, align 4
  %23 = ptrtoint ptr %11 to i64
  br label %24

24:                                               ; preds = %9, %7
  %.0 = phi i64 [ %8, %7 ], [ %23, %9 ]
  ret i64 %.0
}